; Function Attrs: mustprogress uwtable
define void @_ZN2cv3dnn14dnn4_v202405218NMSBoxesERKSt6vectorINS_5Rect_IiEESaIS4_EERKS2_IfSaIfEEffRS2_IiSaIiEEfi(ptr noundef nonnull align 8 dereferenceable(24) %0, ptr noundef nonnull align 8 dereferenceable(24) %1, float noundef %2, float noundef %3, ptr noundef nonnull align 8 dereferenceable(24) %4, float noundef %5, i32 noundef %6) local_unnamed_addr #3 personality ptr @__gxx_personality_v0 {
  %8 = alloca %"class.std::__cxx11::basic_string", align 8
  %9 = alloca %"class.std::allocator.5", align 1
  %10 = alloca %"class.std::__cxx11::basic_string", align 8
  %11 = alloca %"class.std::allocator.5", align 1
  %12 = alloca %"class.std::__cxx11::basic_string", align 8
  %13 = alloca %"class.std::allocator.5", align 1
  %14 = alloca %"class.std::__cxx11::basic_string", align 8
  %15 = alloca %"class.std::allocator.5", align 1
  %16 = getelementptr inbounds i8, ptr %0, i64 8
  %17 = load ptr, ptr %16, align 8
  %18 = load ptr, ptr %0, align 8
  %19 = ptrtoint ptr %17 to i64
  %20 = ptrtoint ptr %18 to i64
  %21 = sub i64 %19, %20
  %22 = ashr exact i64 %21, 4
  %23 = getelementptr inbounds i8, ptr %1, i64 8
  %24 = load ptr, ptr %23, align 8
  %25 = load ptr, ptr %1, align 8
  %26 = ptrtoint ptr %24 to i64
  %27 = ptrtoint ptr %25 to i64
  %28 = sub i64 %26, %27
  %29 = ashr exact i64 %28, 2
  %30 = icmp eq i64 %22, %29
  br i1 %30, label %38, label %31

31:                                               ; preds = %7
  call void @_ZNSaIcEC1Ev(ptr noundef nonnull align 1 dereferenceable(1) %9) #17
  invoke void @_ZNSt7__cxx1112basic_stringIcSt11char_traitsIcESaIcEEC1EPKcRKS3_(ptr noundef nonnull align 8 dereferenceable(32) %8, ptr noundef nonnull @.str, ptr noundef nonnull align 1 dereferenceable(1) %9)
          to label %32 unwind label %34

32:                                               ; preds = %31
  invoke void @_ZN2cv5errorEiRKNSt7__cxx1112basic_stringIcSt11char_traitsIcESaIcEEEPKcS9_i(i32 noundef -215, ptr noundef nonnull align 8 dereferenceable(32) %8, ptr noundef nonnull @__func__._ZN2cv3dnn14dnn4_v202405218NMSBoxesERKSt6vectorINS_5Rect_IiEESaIS4_EERKS2_IfSaIfEEffRS2_IiSaIiEEfi, ptr noundef nonnull @.str.1, i32 noundef 27) #18
          to label %33 unwind label %36

33:                                               ; preds = %32
  unreachable

34:                                               ; preds = %31
  %35 = landingpad { ptr, i32 }
          cleanup
  br label %66

36:                                               ; preds = %32
  %37 = landingpad { ptr, i32 }
          cleanup
  call void @_ZNSt7__cxx1112basic_stringIcSt11char_traitsIcESaIcEED1Ev(ptr noundef nonnull align 8 dereferenceable(32) %8) #17
  br label %66

38:                                               ; preds = %7
  %39 = fcmp ult float %2, 0.000000e+00
  br i1 %39, label %40, label %47

40:                                               ; preds = %38
  call void @_ZNSaIcEC1Ev(ptr noundef nonnull align 1 dereferenceable(1) %11) #17
  invoke void @_ZNSt7__cxx1112basic_stringIcSt11char_traitsIcESaIcEEC1EPKcRKS3_(ptr noundef nonnull align 8 dereferenceable(32) %10, ptr noundef nonnull @.str.2, ptr noundef nonnull align 1 dereferenceable(1) %11)
          to label %41 unwind label %43

41:                                               ; preds = %40
  invoke void @_ZN2cv5errorEiRKNSt7__cxx1112basic_stringIcSt11char_traitsIcESaIcEEEPKcS9_i(i32 noundef -215, ptr noundef nonnull align 8 dereferenceable(32) %10, ptr noundef nonnull @__func__._ZN2cv3dnn14dnn4_v202405218NMSBoxesERKSt6vectorINS_5Rect_IiEESaIS4_EERKS2_IfSaIfEEffRS2_IiSaIiEEfi, ptr noundef nonnull @.str.1, i32 noundef 27) #18
          to label %42 unwind label %45

42:                                               ; preds = %41
  unreachable

43:                                               ; preds = %40
  %44 = landingpad { ptr, i32 }
          cleanup
  br label %66

45:                                               ; preds = %41
  %46 = landingpad { ptr, i32 }
          cleanup
  call void @_ZNSt7__cxx1112basic_stringIcSt11char_traitsIcESaIcEED1Ev(ptr noundef nonnull align 8 dereferenceable(32) %10) #17
  br label %66

47:                                               ; preds = %38
  %48 = fcmp ult float %3, 0.000000e+00
  br i1 %48, label %49, label %56

49:                                               ; preds = %47
  call void @_ZNSaIcEC1Ev(ptr noundef nonnull align 1 dereferenceable(1) %13) #17
  invoke void @_ZNSt7__cxx1112basic_stringIcSt11char_traitsIcESaIcEEC1EPKcRKS3_(ptr noundef nonnull align 8 dereferenceable(32) %12, ptr noundef nonnull @.str.3, ptr noundef nonnull align 1 dereferenceable(1) %13)
          to label %50 unwind label %52

50:                                               ; preds = %49
  invoke void @_ZN2cv5errorEiRKNSt7__cxx1112basic_stringIcSt11char_traitsIcESaIcEEEPKcS9_i(i32 noundef -215, ptr noundef nonnull align 8 dereferenceable(32) %12, ptr noundef nonnull @__func__._ZN2cv3dnn14dnn4_v202405218NMSBoxesERKSt6vectorINS_5Rect_IiEESaIS4_EERKS2_IfSaIfEEffRS2_IiSaIiEEfi, ptr noundef nonnull @.str.1, i32 noundef 27) #18
          to label %51 unwind label %54

51:                                               ; preds = %50
  unreachable

52:                                               ; preds = %49
  %53 = landingpad { ptr, i32 }
          cleanup
  br label %66

54:                                               ; preds = %50
  %55 = landingpad { ptr, i32 }
          cleanup
  call void @_ZNSt7__cxx1112basic_stringIcSt11char_traitsIcESaIcEED1Ev(ptr noundef nonnull align 8 dereferenceable(32) %12) #17
  br label %66

56:                                               ; preds = %47
  %57 = fcmp ogt float %5, 0.000000e+00
  br i1 %57, label %65, label %58

58:                                               ; preds = %56
  call void @_ZNSaIcEC1Ev(ptr noundef nonnull align 1 dereferenceable(1) %15) #17
  invoke void @_ZNSt7__cxx1112basic_stringIcSt11char_traitsIcESaIcEEC1EPKcRKS3_(ptr noundef nonnull align 8 dereferenceable(32) %14, ptr noundef nonnull @.str.4, ptr noundef nonnull align 1 dereferenceable(1) %15)
          to label %59 unwind label %61

59:                                               ; preds = %58
  invoke void @_ZN2cv5errorEiRKNSt7__cxx1112basic_stringIcSt11char_traitsIcESaIcEEEPKcS9_i(i32 noundef -215, ptr noundef nonnull align 8 dereferenceable(32) %14, ptr noundef nonnull @__func__._ZN2cv3dnn14dnn4_v202405218NMSBoxesERKSt6vectorINS_5Rect_IiEESaIS4_EERKS2_IfSaIfEEffRS2_IiSaIiEEfi, ptr noundef nonnull @.str.1, i32 noundef 27) #18
          to label %60 unwind label %63

60:                                               ; preds = %59
  unreachable

61:                                               ; preds = %58
  %62 = landingpad { ptr, i32 }
          cleanup
  br label %66

63:                                               ; preds = %59
  %64 = landingpad { ptr, i32 }
          cleanup
  call void @_ZNSt7__cxx1112basic_stringIcSt11char_traitsIcESaIcEED1Ev(ptr noundef nonnull align 8 dereferenceable(32) %14) #17
  br label %66

65:                                               ; preds = %56
  tail call void @_ZN2cv3dnn8NMSFast_INS_5Rect_IiEEEEvRKSt6vectorIT_SaIS5_EERKS4_IfSaIfEEfffiRS4_IiSaIiEEPFfRKS5_SI_Ei(ptr noundef nonnull align 8 dereferenceable(24) %0, ptr noundef nonnull align 8 dereferenceable(24) %1, float noundef %2, float noundef %3, float noundef %5, i32 noundef %6, ptr noundef nonnull align 8 dereferenceable(24) %4, ptr noundef nonnull @_ZN2cv3dnn14dnn4_v20240521L11rectOverlapINS_5Rect_IiEEEEfRKT_S7_, i32 noundef 2147483647)
  ret void

66:                                               ; preds = %61, %63, %52, %54, %43, %45, %34, %36
  %.sink = phi ptr [ %9, %36 ], [ %9, %34 ], [ %11, %45 ], [ %11, %43 ], [ %13, %54 ], [ %13, %52 ], [ %15, %63 ], [ %15, %61 ]
  %.pn26.pn = phi { ptr, i32 } [ %37, %36 ], [ %35, %34 ], [ %46, %45 ], [ %44, %43 ], [ %55, %54 ], [ %53, %52 ], [ %64, %63 ], [ %62, %61 ]
  call void @_ZNSaIcED1Ev(ptr noundef nonnull align 1 dereferenceable(1) %.sink) #17
  resume { ptr, i32 } %.pn26.pn
}